; Function Attrs: nounwind uwtable
define ptr @l_Lean_addProjectionFnInfo___boxed(ptr noundef %0, ptr noundef %1, ptr noundef %2, ptr noundef %3, ptr noundef %4, ptr noundef %5) local_unnamed_addr #0 {
  %7 = ptrtoint ptr %5 to i64
  %8 = and i64 %7, 1
  %.not = icmp eq i64 %8, 0
  br i1 %.not, label %9, label %lean_dec.exit

9:                                                ; preds = %6
  %10 = load i32, ptr %5, align 4, !tbaa !8
  %11 = icmp sgt i32 %10, 1
  br i1 %11, label %12, label %14, !prof !11

12:                                               ; preds = %9
  %13 = add nsw i32 %10, -1
  store i32 %13, ptr %5, align 4, !tbaa !8
  br label %lean_dec.exit

14:                                               ; preds = %9
  %.not.i = icmp eq i32 %10, 0
  br i1 %.not.i, label %lean_dec.exit, label %15

15:                                               ; preds = %14
  tail call void @lean_dec_ref_cold(ptr noundef nonnull %5) #3
  br label %lean_dec.exit

lean_dec.exit:                                    ; preds = %15, %14, %12, %6
  tail call void @lean_inc_heartbeat() #3
  %16 = tail call noalias ptr @mi_malloc_small(i64 noundef 40) #3
  %17 = icmp eq ptr %16, null
  br i1 %17, label %18, label %lean_add_projection_info.exit

18:                                               ; preds = %lean_dec.exit
  tail call void @lean_internal_panic_out_of_memory() #4
  unreachable

lean_add_projection_info.exit:                    ; preds = %lean_dec.exit
  %19 = lshr i64 %7, 1
  %20 = trunc i64 %19 to i8
  %21 = getelementptr inbounds nuw i8, ptr %16, i64 4
  %22 = getelementptr inbounds nuw i8, ptr %16, i64 32
  store i64 0, ptr %22, align 8, !tbaa !12
  store i32 1, ptr %16, align 4, !tbaa !8
  store i32 196648, ptr %21, align 4
  %23 = getelementptr inbounds nuw i8, ptr %16, i64 8
  store ptr %2, ptr %23, align 8, !tbaa !4
  %24 = getelementptr inbounds nuw i8, ptr %16, i64 16
  store ptr %3, ptr %24, align 8, !tbaa !4
  %25 = getelementptr inbounds nuw i8, ptr %16, i64 24
  store ptr %4, ptr %25, align 8, !tbaa !4
  store i8 %20, ptr %22, align 1, !tbaa !14
  %26 = load ptr, ptr @l_Lean_addProjectionFnInfo___closed__1, align 8, !tbaa !4
  %27 = tail call ptr @l_Lean_MapDeclarationExtension_insert___rarg(ptr noundef %26, ptr noundef %0, ptr noundef %1, ptr noundef nonnull %16) #3
  ret ptr %27
}